(lp0
((cnumpy.core.multiarray
scalar
p1
(cnumpy
dtype
p2
(S'i8'
p3
I0
I1
tp4
Rp5
(I3
S'<'
p6
NNNI-1
I-1
I0
tp7
bS'\x01\x00\x00\x00\x00\x00\x00\x00'
p8
tp9
Rp10
g1
(g5
S'\x02\x00\x00\x00\x00\x00\x00\x00'
p11
tp12
Rp13
tp14
(S'red'
p15
S'blue'
p16
tp17
I11
tp18
a.